; Function Attrs: mustprogress uwtable
define void @_ZN4cvc56parser11ParserState18mkFlatFunctionTypeERSt6vectorINS_4SortESaIS3_EES3_(ptr noalias sret(%"class.cvc5::Sort") align 8 %agg.result, ptr nocapture noundef nonnull readonly align 8 dereferenceable(168) %this, ptr noundef nonnull align 8 dereferenceable(24) %sorts, ptr nocapture noundef readonly %range) local_unnamed_addr #3 align 2 personality ptr @__gxx_personality_v0 {
entry:
  %newRange = alloca %"class.cvc5::Sort", align 16
  %agg.tmp = alloca %"class.cvc5::Sort", align 16
  %0 = load <2 x ptr>, ptr %range, align 8
  store <2 x ptr> %0, ptr %agg.tmp, align 16
  %_M_refcount.i.i.i = getelementptr inbounds i8, ptr %agg.tmp, i64 16
  %_M_refcount3.i.i.i = getelementptr inbounds i8, ptr %range, i64 16
  %1 = load ptr, ptr %_M_refcount3.i.i.i, align 8
  store ptr %1, ptr %_M_refcount.i.i.i, align 16
  %cmp.not.i.i.i.i = icmp eq ptr %1, null
  br i1 %cmp.not.i.i.i.i, label %_ZN4cvc54SortC2ERKS0_.exit, label %if.then.i.i.i.i

if.then.i.i.i.i:                                  ; preds = %entry
  %_M_use_count.i.i.i.i.i = getelementptr inbounds i8, ptr %1, i64 8
  %2 = load i8, ptr @__libc_single_threaded, align 1
  %tobool.i.not.i.i.i.i.i = icmp eq i8 %2, 0
  br i1 %tobool.i.not.i.i.i.i.i, label %if.else.i.i.i.i.i.i, label %if.then.i.i.i.i.i.i

if.then.i.i.i.i.i.i:                              ; preds = %if.then.i.i.i.i
  %3 = load i32, ptr %_M_use_count.i.i.i.i.i, align 4
  %add.i.i.i.i.i.i = add nsw i32 %3, 1
  store i32 %add.i.i.i.i.i.i, ptr %_M_use_count.i.i.i.i.i, align 4
  br label %_ZN4cvc54SortC2ERKS0_.exit

if.else.i.i.i.i.i.i:                              ; preds = %if.then.i.i.i.i
  %4 = atomicrmw volatile add ptr %_M_use_count.i.i.i.i.i, i32 1 acq_rel, align 4
  br label %_ZN4cvc54SortC2ERKS0_.exit

_ZN4cvc54SortC2ERKS0_.exit:                       ; preds = %entry, %if.then.i.i.i.i.i.i, %if.else.i.i.i.i.i.i
  invoke void @_ZN4cvc56parser11ParserState19flattenFunctionTypeERSt6vectorINS_4SortESaIS3_EES3_(ptr nonnull sret(%"class.cvc5::Sort") align 8 %newRange, ptr nonnull align 8 poison, ptr noundef nonnull align 8 dereferenceable(24) %sorts, ptr noundef nonnull %agg.tmp)
          to label %invoke.cont unwind label %lpad

invoke.cont:                                      ; preds = %_ZN4cvc54SortC2ERKS0_.exit
  call void @_ZN4cvc54SortD1Ev(ptr noundef nonnull align 8 dereferenceable(24) %agg.tmp) #23
  %5 = load ptr, ptr %sorts, align 8
  %_M_finish.i.i = getelementptr inbounds i8, ptr %sorts, i64 8
  %6 = load ptr, ptr %_M_finish.i.i, align 8
  %cmp.i.i = icmp eq ptr %5, %6
  br i1 %cmp.i.i, label %if.end, label %if.then

if.then:                                          ; preds = %invoke.cont
  %d_solver = getelementptr inbounds i8, ptr %this, i64 8
  %7 = load ptr, ptr %d_solver, align 8
  invoke void @_ZNK4cvc56Solver14mkFunctionSortERKSt6vectorINS_4SortESaIS2_EERKS2_(ptr sret(%"class.cvc5::Sort") align 8 %agg.result, ptr noundef nonnull align 8 dereferenceable(40) %7, ptr noundef nonnull align 8 dereferenceable(24) %sorts, ptr noundef nonnull align 8 dereferenceable(24) %newRange)
          to label %cleanup unwind label %lpad2

lpad:                                             ; preds = %_ZN4cvc54SortC2ERKS0_.exit
  %8 = landingpad { ptr, i32 }
          cleanup
  br label %eh.resume

lpad2:                                            ; preds = %if.then
  %9 = landingpad { ptr, i32 }
          cleanup
  br label %eh.resume

if.end:                                           ; preds = %invoke.cont
  %10 = load <2 x ptr>, ptr %newRange, align 16
  store <2 x ptr> %10, ptr %agg.result, align 8
  %_M_refcount.i.i.i6 = getelementptr inbounds i8, ptr %agg.result, i64 16
  %_M_refcount3.i.i.i7 = getelementptr inbounds i8, ptr %newRange, i64 16
  %11 = load ptr, ptr %_M_refcount3.i.i.i7, align 16
  store ptr %11, ptr %_M_refcount.i.i.i6, align 8
  %cmp.not.i.i.i.i8 = icmp eq ptr %11, null
  br i1 %cmp.not.i.i.i.i8, label %cleanup, label %if.then.i.i.i.i9

if.then.i.i.i.i9:                                 ; preds = %if.end
  %_M_use_count.i.i.i.i.i10 = getelementptr inbounds i8, ptr %11, i64 8
  %12 = load i8, ptr @__libc_single_threaded, align 1
  %tobool.i.not.i.i.i.i.i11 = icmp eq i8 %12, 0
  br i1 %tobool.i.not.i.i.i.i.i11, label %if.else.i.i.i.i.i.i14, label %if.then.i.i.i.i.i.i12

if.then.i.i.i.i.i.i12:                            ; preds = %if.then.i.i.i.i9
  %13 = load i32, ptr %_M_use_count.i.i.i.i.i10, align 4
  %add.i.i.i.i.i.i13 = add nsw i32 %13, 1
  store i32 %add.i.i.i.i.i.i13, ptr %_M_use_count.i.i.i.i.i10, align 4
  br label %cleanup

if.else.i.i.i.i.i.i14:                            ; preds = %if.then.i.i.i.i9
  %14 = atomicrmw volatile add ptr %_M_use_count.i.i.i.i.i10, i32 1 acq_rel, align 4
  br label %cleanup

cleanup:                                          ; preds = %if.else.i.i.i.i.i.i14, %if.then.i.i.i.i.i.i12, %if.end, %if.then
  call void @_ZN4cvc54SortD1Ev(ptr noundef nonnull align 8 dereferenceable(24) %newRange) #23
  ret void

eh.resume:                                        ; preds = %lpad2, %lpad
  %newRange.sink = phi ptr [ %newRange, %lpad2 ], [ %agg.tmp, %lpad ]
  %.pn = phi { ptr, i32 } [ %9, %lpad2 ], [ %8, %lpad ]
  call void @_ZN4cvc54SortD1Ev(ptr noundef nonnull align 8 dereferenceable(24) %newRange.sink) #23
  resume { ptr, i32 } %.pn
}